; Function Attrs: nounwind uwtable
define ptr @l_Lean_PrettyPrinter_Formatter_instMonadTraverserFormatterM___lambda__1(ptr readnone captures(none) %0, ptr noundef %1, ptr readnone captures(none) %2, ptr readnone captures(none) %3, ptr noundef %4) local_unnamed_addr #0 {
  %6 = tail call ptr @lean_st_ref_get(ptr noundef %1, ptr noundef %4) #6
  %.val = load i32, ptr %6, align 4, !tbaa !8
  %7 = icmp eq i32 %.val, 1
  %8 = getelementptr inbounds nuw i8, ptr %6, i64 8
  %9 = load ptr, ptr %8, align 8, !tbaa !4
  br i1 %7, label %10, label %30

10:                                               ; preds = %5
  %11 = getelementptr inbounds nuw i8, ptr %9, i64 8
  %12 = load ptr, ptr %11, align 8, !tbaa !4
  %13 = ptrtoint ptr %12 to i64
  %14 = and i64 %13, 1
  %.not46 = icmp eq i64 %14, 0
  br i1 %.not46, label %15, label %lean_inc.exit26

15:                                               ; preds = %10
  %.val.i = load i32, ptr %12, align 4, !tbaa !8
  %16 = icmp sgt i32 %.val.i, 0
  br i1 %16, label %17, label %19, !prof !11

17:                                               ; preds = %15
  %18 = add nuw i32 %.val.i, 1
  store i32 %18, ptr %12, align 4, !tbaa !8
  br label %lean_inc.exit26

19:                                               ; preds = %15
  %.not.i33 = icmp eq i32 %.val.i, 0
  br i1 %.not.i33, label %lean_inc.exit26, label %20

20:                                               ; preds = %19
  tail call void @lean_inc_ref_cold(ptr noundef nonnull %12) #6
  br label %lean_inc.exit26

lean_inc.exit26:                                  ; preds = %20, %19, %17, %10
  %21 = ptrtoint ptr %9 to i64
  %22 = and i64 %21, 1
  %.not47 = icmp eq i64 %22, 0
  br i1 %.not47, label %23, label %lean_dec.exit28

23:                                               ; preds = %lean_inc.exit26
  %24 = load i32, ptr %9, align 4, !tbaa !8
  %25 = icmp sgt i32 %24, 1
  br i1 %25, label %26, label %28, !prof !11

26:                                               ; preds = %23
  %27 = add nsw i32 %24, -1
  store i32 %27, ptr %9, align 4, !tbaa !8
  br label %lean_dec.exit28

28:                                               ; preds = %23
  %.not.i = icmp eq i32 %24, 0
  br i1 %.not.i, label %lean_dec.exit28, label %29

29:                                               ; preds = %28
  tail call void @lean_dec_ref_cold(ptr noundef nonnull %9) #6
  br label %lean_dec.exit28

lean_dec.exit28:                                  ; preds = %29, %28, %26, %lean_inc.exit26
  store ptr %12, ptr %8, align 8, !tbaa !4
  br label %81

30:                                               ; preds = %5
  %31 = getelementptr inbounds nuw i8, ptr %6, i64 16
  %32 = load ptr, ptr %31, align 8, !tbaa !4
  %33 = ptrtoint ptr %32 to i64
  %34 = and i64 %33, 1
  %.not = icmp eq i64 %34, 0
  br i1 %.not, label %35, label %lean_inc.exit25

35:                                               ; preds = %30
  %.val.i34 = load i32, ptr %32, align 4, !tbaa !8
  %36 = icmp sgt i32 %.val.i34, 0
  br i1 %36, label %37, label %39, !prof !11

37:                                               ; preds = %35
  %38 = add nuw i32 %.val.i34, 1
  store i32 %38, ptr %32, align 4, !tbaa !8
  br label %lean_inc.exit25

39:                                               ; preds = %35
  %.not.i35 = icmp eq i32 %.val.i34, 0
  br i1 %.not.i35, label %lean_inc.exit25, label %40

40:                                               ; preds = %39
  tail call void @lean_inc_ref_cold(ptr noundef nonnull %32) #6
  br label %lean_inc.exit25

lean_inc.exit25:                                  ; preds = %40, %39, %37, %30
  %41 = ptrtoint ptr %9 to i64
  %42 = and i64 %41, 1
  %.not43 = icmp eq i64 %42, 0
  br i1 %.not43, label %43, label %lean_inc.exit24

43:                                               ; preds = %lean_inc.exit25
  %.val.i37 = load i32, ptr %9, align 4, !tbaa !8
  %44 = icmp sgt i32 %.val.i37, 0
  br i1 %44, label %45, label %47, !prof !11

45:                                               ; preds = %43
  %46 = add nuw i32 %.val.i37, 1
  store i32 %46, ptr %9, align 4, !tbaa !8
  br label %lean_inc.exit24

47:                                               ; preds = %43
  %.not.i38 = icmp eq i32 %.val.i37, 0
  br i1 %.not.i38, label %lean_inc.exit24, label %48

48:                                               ; preds = %47
  tail call void @lean_inc_ref_cold(ptr noundef nonnull %9) #6
  br label %lean_inc.exit24

lean_inc.exit24:                                  ; preds = %48, %47, %45, %lean_inc.exit25
  %49 = ptrtoint ptr %6 to i64
  %50 = and i64 %49, 1
  %.not44 = icmp eq i64 %50, 0
  br i1 %.not44, label %51, label %lean_dec.exit27

51:                                               ; preds = %lean_inc.exit24
  %52 = load i32, ptr %6, align 4, !tbaa !8
  %53 = icmp sgt i32 %52, 1
  br i1 %53, label %54, label %56, !prof !11

54:                                               ; preds = %51
  %55 = add nsw i32 %52, -1
  store i32 %55, ptr %6, align 4, !tbaa !8
  br label %lean_dec.exit27

56:                                               ; preds = %51
  %.not.i29 = icmp eq i32 %52, 0
  br i1 %.not.i29, label %lean_dec.exit27, label %57

57:                                               ; preds = %56
  tail call void @lean_dec_ref_cold(ptr noundef nonnull %6) #6
  br label %lean_dec.exit27

lean_dec.exit27:                                  ; preds = %57, %56, %54, %lean_inc.exit24
  %58 = getelementptr inbounds nuw i8, ptr %9, i64 8
  %59 = load ptr, ptr %58, align 8, !tbaa !4
  %60 = ptrtoint ptr %59 to i64
  %61 = and i64 %60, 1
  %.not45 = icmp eq i64 %61, 0
  br i1 %.not45, label %62, label %lean_inc.exit

62:                                               ; preds = %lean_dec.exit27
  %.val.i40 = load i32, ptr %59, align 4, !tbaa !8
  %63 = icmp sgt i32 %.val.i40, 0
  br i1 %63, label %64, label %66, !prof !11

64:                                               ; preds = %62
  %65 = add nuw i32 %.val.i40, 1
  store i32 %65, ptr %59, align 4, !tbaa !8
  br label %lean_inc.exit

66:                                               ; preds = %62
  %.not.i41 = icmp eq i32 %.val.i40, 0
  br i1 %.not.i41, label %lean_inc.exit, label %67

67:                                               ; preds = %66
  tail call void @lean_inc_ref_cold(ptr noundef nonnull %59) #6
  br label %lean_inc.exit

lean_inc.exit:                                    ; preds = %67, %66, %64, %lean_dec.exit27
  br i1 %.not43, label %68, label %lean_dec.exit

68:                                               ; preds = %lean_inc.exit
  %69 = load i32, ptr %9, align 4, !tbaa !8
  %70 = icmp sgt i32 %69, 1
  br i1 %70, label %71, label %73, !prof !11

71:                                               ; preds = %68
  %72 = add nsw i32 %69, -1
  store i32 %72, ptr %9, align 4, !tbaa !8
  br label %lean_dec.exit

73:                                               ; preds = %68
  %.not.i31 = icmp eq i32 %69, 0
  br i1 %.not.i31, label %lean_dec.exit, label %74

74:                                               ; preds = %73
  tail call void @lean_dec_ref_cold(ptr noundef nonnull %9) #6
  br label %lean_dec.exit

lean_dec.exit:                                    ; preds = %74, %73, %71, %lean_inc.exit
  tail call void @lean_inc_heartbeat() #6
  %75 = tail call noalias ptr @mi_malloc_small(i64 noundef 24) #6
  %76 = icmp eq ptr %75, null
  br i1 %76, label %77, label %lean_alloc_ctor.exit

77:                                               ; preds = %lean_dec.exit
  tail call void @lean_internal_panic_out_of_memory() #7
  unreachable

lean_alloc_ctor.exit:                             ; preds = %lean_dec.exit
  %78 = getelementptr inbounds nuw i8, ptr %75, i64 4
  store i32 1, ptr %75, align 4, !tbaa !8
  store i32 131096, ptr %78, align 4
  %79 = getelementptr inbounds nuw i8, ptr %75, i64 8
  store ptr %59, ptr %79, align 8, !tbaa !4
  %80 = getelementptr inbounds nuw i8, ptr %75, i64 16
  store ptr %32, ptr %80, align 8, !tbaa !4
  br label %81

81:                                               ; preds = %lean_alloc_ctor.exit, %lean_dec.exit28
  %.0 = phi ptr [ %6, %lean_dec.exit28 ], [ %75, %lean_alloc_ctor.exit ]
  ret ptr %.0
}